target datalayout = "e-m:e-p270:32:32-p271:32:32-p272:64:64-i64:64-i128:128-f80:128-n8:16:32:64-S128"
target triple = "x86_64-pc-linux-gnu"

@.str.17 = private unnamed_addr constant [53 x i8] c"Failed to exec spawn helper: pid: %d, exit value: %d\00", align 1
@.str.18 = private unnamed_addr constant [49 x i8] c"Failed to exec spawn helper: pid: %d, signal: %d\00", align 1
@.str.19 = private unnamed_addr constant [53 x i8] c"Failed to exec spawn helper: pid: %d, status: 0x%08x\00", align 1

; Function Attrs: nounwind uwtable
define internal void @throwExitCause(ptr noundef %0, i32 noundef %1, i32 noundef %2) #0 {
  %4 = alloca ptr, align 8
  %5 = alloca i32, align 4
  %6 = alloca i32, align 4
  %7 = alloca [128 x i8], align 16
  store ptr %0, ptr %4, align 8
  store i32 %1, ptr %5, align 4
  store i32 %2, ptr %6, align 4
  %8 = load i32, ptr %6, align 4
  %9 = and i32 %8, 127
  %10 = icmp eq i32 %9, 0
  br i1 %10, label %11, label %18

11:                                               ; preds = %3
  %12 = getelementptr inbounds [128 x i8], ptr %7, i64 0, i64 0
  %13 = load i32, ptr %5, align 4
  %14 = load i32, ptr %6, align 4
  %15 = and i32 %14, 65280
  %16 = ashr i32 %15, 8
  %17 = call i32 (ptr, i64, ptr, ...) @snprintf(ptr noundef %12, i64 noundef 128, ptr noundef @.str.17, i32 noundef %13, i32 noundef %16) #9
  br label %38

18:                                               ; preds = %3
  %19 = load i32, ptr %6, align 4
  %20 = and i32 %19, 127
  %21 = add nsw i32 %20, 1
  %22 = trunc i32 %21 to i8
  %23 = sext i8 %22 to i32
  %24 = ashr i32 %23, 1
  %25 = icmp sgt i32 %24, 0
  br i1 %25, label %26, label %32

26:                                               ; preds = %18
  %27 = getelementptr inbounds [128 x i8], ptr %7, i64 0, i64 0
  %28 = load i32, ptr %5, align 4
  %29 = load i32, ptr %6, align 4
  %30 = and i32 %29, 127
  %31 = call i32 (ptr, i64, ptr, ...) @snprintf(ptr noundef %27, i64 noundef 128, ptr noundef @.str.18, i32 noundef %28, i32 noundef %30) #9
  br label %37

32:                                               ; preds = %18
  %33 = getelementptr inbounds [128 x i8], ptr %7, i64 0, i64 0
  %34 = load i32, ptr %5, align 4
  %35 = load i32, ptr %6, align 4
  %36 = call i32 (ptr, i64, ptr, ...) @snprintf(ptr noundef %33, i64 noundef 128, ptr noundef @.str.19, i32 noundef %34, i32 noundef %35) #9
  br label %37

37:                                               ; preds = %32, %26
  br label %38

38:                                               ; preds = %37, %11
  %39 = load ptr, ptr %4, align 8
  %40 = getelementptr inbounds [128 x i8], ptr %7, i64 0, i64 0
  call void @throwIOException(ptr noundef %39, i32 noundef 0, ptr noundef %40)
  ret void
}