; Function Attrs: nounwind uwtable
define internal fastcc void @throwExitCause(ptr noundef %0, i32 noundef %1, i32 noundef %2) unnamed_addr #0 {
  %4 = alloca [128 x i8], align 16
  %5 = and i32 %2, 127
  %6 = icmp eq i32 %5, 0
  br i1 %6, label %7, label %11

7:                                                ; preds = %3
  %8 = lshr i32 %2, 8
  %9 = and i32 %8, 255
  %10 = call i32 (ptr, i64, ptr, ...) @snprintf(ptr noundef nonnull dereferenceable(1) %4, i64 noundef 128, ptr noundef nonnull @.str.17, i32 noundef %1, i32 noundef %9) #13
  br label %18

11:                                               ; preds = %3
  %12 = shl nuw nsw i32 %5, 24
  %sext = add nuw i32 %12, 16777216
  %13 = icmp sgt i32 %sext, 33554431
  br i1 %13, label %14, label %16

14:                                               ; preds = %11
  %15 = call i32 (ptr, i64, ptr, ...) @snprintf(ptr noundef nonnull dereferenceable(1) %4, i64 noundef 128, ptr noundef nonnull @.str.18, i32 noundef %1, i32 noundef %5) #13
  br label %18

16:                                               ; preds = %11
  %17 = call i32 (ptr, i64, ptr, ...) @snprintf(ptr noundef nonnull dereferenceable(1) %4, i64 noundef 128, ptr noundef nonnull @.str.19, i32 noundef %1, i32 noundef %2) #13
  br label %18

18:                                               ; preds = %14, %16, %7
  call fastcc void @throwIOException(ptr noundef %0, i32 noundef 0, ptr noundef nonnull %4)
  ret void
}